; Function Attrs: nounwind uwtable
define dso_local ptr @get_mergejoin_opfamilies(i32 noundef %0) local_unnamed_addr #0 {
  %2 = zext i32 %0 to i64
  %3 = tail call ptr @SearchSysCacheList(i32 noundef 3, i32 noundef 1, i64 noundef %2, i64 noundef 0, i64 noundef 0) #8
  %4 = getelementptr inbounds nuw i8, ptr %3, i64 64
  %5 = load i32, ptr %4, align 8
  %6 = icmp sgt i32 %5, 0
  br i1 %6, label %.lr.ph, label %._crit_edge

.lr.ph:                                           ; preds = %1
  %7 = getelementptr inbounds nuw i8, ptr %3, i64 80
  br label %8

8:                                                ; preds = %.lr.ph, %28
  %9 = phi i32 [ %5, %.lr.ph ], [ %29, %28 ]
  %indvars.iv = phi i64 [ 0, %.lr.ph ], [ %indvars.iv.next, %28 ]
  %.014 = phi ptr [ null, %.lr.ph ], [ %.1, %28 ]
  %10 = getelementptr inbounds nuw [0 x ptr], ptr %7, i64 0, i64 %indvars.iv
  %11 = load ptr, ptr %10, align 8
  %12 = getelementptr i8, ptr %11, i64 80
  %.val = load ptr, ptr %12, align 8
  %13 = getelementptr inbounds nuw i8, ptr %.val, i64 22
  %14 = load i8, ptr %13, align 2
  %15 = zext i8 %14 to i64
  %16 = getelementptr inbounds nuw i8, ptr %.val, i64 %15
  %17 = getelementptr inbounds nuw i8, ptr %16, i64 24
  %18 = load i32, ptr %17, align 4
  %19 = icmp eq i32 %18, 403
  br i1 %19, label %20, label %28

20:                                               ; preds = %8
  %21 = getelementptr inbounds nuw i8, ptr %16, i64 16
  %22 = load i16, ptr %21, align 4
  %23 = icmp eq i16 %22, 3
  br i1 %23, label %24, label %28

24:                                               ; preds = %20
  %25 = getelementptr inbounds nuw i8, ptr %16, i64 4
  %26 = load i32, ptr %25, align 4
  %27 = tail call ptr @lappend_oid(ptr noundef %.014, i32 noundef %26) #8
  %.pre = load i32, ptr %4, align 8
  br label %28

28:                                               ; preds = %24, %20, %8
  %29 = phi i32 [ %.pre, %24 ], [ %9, %20 ], [ %9, %8 ]
  %.1 = phi ptr [ %27, %24 ], [ %.014, %20 ], [ %.014, %8 ]
  %indvars.iv.next = add nuw nsw i64 %indvars.iv, 1
  %30 = sext i32 %29 to i64
  %31 = icmp slt i64 %indvars.iv.next, %30
  br i1 %31, label %8, label %._crit_edge, !llvm.loop !7

._crit_edge:                                      ; preds = %28, %1
  %.0.lcssa = phi ptr [ null, %1 ], [ %.1, %28 ]
  tail call void @ReleaseCatCacheList(ptr noundef nonnull %3) #8
  ret ptr %.0.lcssa
}